; Function Attrs: mustprogress nofree norecurse nosync nounwind willreturn memory(readwrite, argmem: none, inaccessiblemem: none) uwtable
define dso_local void @php_output_set_implicit_flush(i32 noundef %0) local_unnamed_addr #6 {
  %.not = icmp ne i32 %0, 0
  %2 = load i32, ptr getelementptr inbounds nuw (i8, ptr @output_globals, i64 52), align 4
  %3 = and i32 %2, -2
  %masksel = zext i1 %.not to i32
  %storemerge = or disjoint i32 %3, %masksel
  store i32 %storemerge, ptr getelementptr inbounds nuw (i8, ptr @output_globals, i64 52), align 4, !tbaa !11
  ret void
}